; Function Attrs: nounwind uwtable
define dso_local i32 @parser_coercion_errposition(ptr noundef %0, i32 noundef %1, ptr noundef %2) local_unnamed_addr #0 {
  %4 = icmp sgt i32 %1, -1
  br i1 %4, label %7, label %5

5:                                                ; preds = %3
  %6 = tail call i32 @exprLocation(ptr noundef %2) #5
  br label %7

7:                                                ; preds = %3, %5
  %.sink = phi i32 [ %6, %5 ], [ %1, %3 ]
  %8 = tail call i32 @parser_errposition(ptr noundef %0, i32 noundef %.sink) #5
  ret i32 %8
}